Certificate Request:
    Data:
        Version: 1 (0x0)
        Subject: C=DE, ST=Berlin, L=Berlin, O=ExaPG, OU=Node, CN=coordinator
        Subject Public Key Info:
            Public Key Algorithm: rsaEncryption
                Public-Key: (2048 bit)
                Modulus:
                    00:98:29:9f:87:2d:37:d2:87:76:65:93:e9:2a:aa:
                    7d:45:a7:40:95:ac:75:90:85:56:4a:ee:27:de:c0:
                    64:18:72:53:1f:02:96:78:1a:67:53:c4:87:3e:79:
                    e8:89:68:09:a3:0f:17:bf:8d:31:6d:c5:14:ee:01:
                    51:7e:b9:3a:fb:da:08:46:9e:e9:30:2f:16:33:ec:
                    95:4b:1f:61:b1:58:37:28:39:d1:c3:80:00:27:74:
                    97:51:38:cb:2f:24:6b:84:a5:97:1c:37:ce:26:1b:
                    72:9b:8b:6c:4f:e6:b9:95:69:23:18:1a:de:44:e3:
                    ec:65:f6:85:c4:14:c8:46:7c:39:44:e4:6a:a4:f0:
                    b4:50:62:86:62:f4:25:b3:08:0e:55:49:f3:b4:db:
                    a1:19:69:e1:0c:52:4d:d4:88:56:56:a9:0c:28:02:
                    89:af:70:03:95:6d:52:53:3c:3d:22:47:4b:e3:fd:
                    72:75:a7:7a:4d:50:72:1b:77:02:e0:a1:99:f4:5a:
                    f4:5a:cd:3c:1c:07:26:32:5d:ba:a2:66:44:8f:7b:
                    ca:81:66:46:b2:0c:e7:63:ac:5a:e5:13:0b:76:be:
                    9d:26:4e:56:3a:75:54:b6:22:f8:50:f3:ad:5e:aa:
                    12:4f:c9:a6:fb:ec:93:22:f3:0e:49:13:0f:83:2e:
                    44:a1
                Exponent: 65537 (0x10001)
        Attributes:
            (none)
            Requested Extensions:
    Signature Algorithm: sha256WithRSAEncryption
    Signature Value:
        95:58:76:c5:c1:2e:d3:6c:70:26:95:e1:6d:8a:01:d2:93:f9:
        24:ca:ce:3f:86:19:dc:d8:e2:df:63:61:92:ad:1e:8a:c8:1c:
        b4:ef:3e:8e:e2:5b:aa:e9:65:62:39:10:9e:9e:38:15:61:ba:
        8a:2b:18:a7:45:11:ce:b2:29:89:bf:bc:22:0f:fa:cc:ea:73:
        53:f5:99:e5:9b:90:48:a0:bd:eb:d4:88:88:f7:fb:58:92:69:
        88:c2:e3:98:46:21:f9:24:57:e6:fb:de:f7:71:a3:a1:fc:89:
        dc:96:5f:82:01:73:df:71:42:0a:a1:af:d9:9a:8a:3b:88:e7:
        ee:18:c1:8e:31:07:22:de:76:f2:88:0f:65:b3:56:01:22:8f:
        13:76:f4:80:5b:13:b9:ba:88:5b:5b:07:9c:ea:7a:44:fe:a4:
        00:2c:da:5d:5f:e1:d4:f7:55:22:26:76:b4:90:f8:34:c3:c4:
        77:8d:66:8c:d8:b7:32:ba:4d:59:3e:0c:eb:bd:8c:dc:fb:c8:
        35:43:67:7a:bf:32:a5:4b:79:0e:61:b5:a1:db:33:6f:0f:71:
        b0:4b:73:c0:b6:93:95:02:f7:5e:94:80:74:41:2a:6a:f5:34:
        d7:ac:1c:58:ef:6c:3b:97:43:2a:1f:b1:04:f1:5f:1a:ce:a4:
        af:39:43:8a
-----BEGIN CERTIFICATE REQUEST-----
MIICqTCCAZECAQAwZDELMAkGA1UEBhMCREUxDzANBgNVBAgMBkJlcmxpbjEPMA0G
A1UEBwwGQmVybGluMQ4wDAYDVQQKDAVFeGFQRzENMAsGA1UECwwETm9kZTEUMBIG
A1UEAwwLY29vcmRpbmF0b3IwggEiMA0GCSqGSIb3DQEBAQUAA4IBDwAwggEKAoIB
AQCYKZ+HLTfSh3Zlk+kqqn1Fp0CVrHWQhVZK7ifewGQYclMfApZ4GmdTxIc+eeiJ
aAmjDxe/jTFtxRTuAVF+uTr72ghGnukwLxYz7JVLH2GxWDcoOdHDgAAndJdROMsv
JGuEpZccN84mG3Kbi2xP5rmVaSMYGt5E4+xl9oXEFMhGfDlE5Gqk8LRQYoZi9CWz
CA5VSfO026EZaeEMUk3UiFZWqQwoAomvcAOVbVJTPD0iR0vj/XJ1p3pNUHIbdwLg
oZn0WvRazTwcByYyXbqiZkSPe8qBZkayDOdjrFrlEwt2vp0mTlY6dVS2IvhQ861e
qhJPyab77JMi8w5JEw+DLkShAgMBAAGgADANBgkqhkiG9w0BAQsFAAOCAQEAlVh2
xcEu02xwJpXhbYoB0pP5JMrOP4YZ3Nji32Nhkq0eisgctO8+juJbqullYjkQnp44
FWG6iisYp0URzrIpib+8Ig/6zOpzU/WZ5ZuQSKC969SIiPf7WJJpiMLjmEYh+SRX
5vve93GjofyJ3JZfggFz33FCCqGv2ZqKO4jn7hjBjjEHIt528ogPZbNWASKPE3b0
gFsTubqIW1sHnOp6RP6kACzaXV/h1PdVIiZ2tJD4NMPEd41mjNi3MrpNWT4M672M
3PvINUNner8ypUt5DmG1odszbw9xsEtzwLaTlQL3XpSAdEEqavU016wcWO9sO5dD
Kh+xBPFfGs6krzlDig==
-----END CERTIFICATE REQUEST-----
