Certificate:
    Data:
        Version: 3 (0x2)
        Serial Number:
            6c:29:b1:8d:74:7c:fc:e7:84:1b:94:e9:92:22:d4:ec:03:fe:1c:16
        Signature Algorithm: sha256WithRSAEncryption
        Issuer: C=DE, ST=Berlin, L=Berlin, O=ExaPG, OU=CA, CN=exapg-ca
        Validity
            Not Before: May 24 11:03:57 2025 GMT
            Not After : May 24 11:03:57 2026 GMT
        Subject: C=DE, ST=Berlin, L=Berlin, O=ExaPG, OU=Node, CN=coordinator
        Subject Public Key Info:
            Public Key Algorithm: rsaEncryption
                Public-Key: (2048 bit)
                Modulus:
                    00:98:29:9f:87:2d:37:d2:87:76:65:93:e9:2a:aa:
                    7d:45:a7:40:95:ac:75:90:85:56:4a:ee:27:de:c0:
                    64:18:72:53:1f:02:96:78:1a:67:53:c4:87:3e:79:
                    e8:89:68:09:a3:0f:17:bf:8d:31:6d:c5:14:ee:01:
                    51:7e:b9:3a:fb:da:08:46:9e:e9:30:2f:16:33:ec:
                    95:4b:1f:61:b1:58:37:28:39:d1:c3:80:00:27:74:
                    97:51:38:cb:2f:24:6b:84:a5:97:1c:37:ce:26:1b:
                    72:9b:8b:6c:4f:e6:b9:95:69:23:18:1a:de:44:e3:
                    ec:65:f6:85:c4:14:c8:46:7c:39:44:e4:6a:a4:f0:
                    b4:50:62:86:62:f4:25:b3:08:0e:55:49:f3:b4:db:
                    a1:19:69:e1:0c:52:4d:d4:88:56:56:a9:0c:28:02:
                    89:af:70:03:95:6d:52:53:3c:3d:22:47:4b:e3:fd:
                    72:75:a7:7a:4d:50:72:1b:77:02:e0:a1:99:f4:5a:
                    f4:5a:cd:3c:1c:07:26:32:5d:ba:a2:66:44:8f:7b:
                    ca:81:66:46:b2:0c:e7:63:ac:5a:e5:13:0b:76:be:
                    9d:26:4e:56:3a:75:54:b6:22:f8:50:f3:ad:5e:aa:
                    12:4f:c9:a6:fb:ec:93:22:f3:0e:49:13:0f:83:2e:
                    44:a1
                Exponent: 65537 (0x10001)
        X509v3 extensions:
            X509v3 Subject Key Identifier: 
                B3:A4:01:D2:1C:03:4E:AA:1F:22:C7:08:C6:EF:8E:75:10:2C:A8:63
            X509v3 Authority Key Identifier: 
                6C:14:6E:2C:BD:26:E0:A8:74:13:C9:6A:4A:68:8A:B7:2F:F8:C2:0C
    Signature Algorithm: sha256WithRSAEncryption
    Signature Value:
        6e:80:d7:3d:b9:a5:56:a7:25:70:c2:d8:ce:ab:4f:55:df:89:
        f0:08:e2:f8:db:6e:a0:f0:c1:fa:94:b5:f2:8d:e5:00:ba:18:
        a5:2f:bf:65:71:74:88:9e:ad:2d:93:88:c7:eb:7b:d7:13:14:
        71:9c:a8:22:eb:09:bc:ac:11:f6:79:e5:62:9d:2d:ee:40:a0:
        d2:ff:09:70:57:ff:3e:54:ce:97:77:b9:25:fd:99:14:c7:24:
        0f:7a:d4:11:d2:19:28:51:01:9c:d4:54:c5:ab:0d:3c:d2:67:
        98:0e:cb:07:83:47:40:12:96:78:06:08:a4:51:28:dd:a5:b4:
        0e:64:29:de:21:35:6d:32:24:40:c5:f2:64:f7:f9:47:fc:45:
        73:02:2c:4d:7d:0e:4c:7e:75:63:2d:88:81:e9:88:88:ff:df:
        2c:28:b1:ad:81:4f:65:83:6d:d3:7d:4e:2a:10:f3:44:2f:65:
        a6:7b:fa:a7:a4:b4:ac:73:31:9b:e6:e7:bc:da:eb:69:0c:ed:
        f5:07:d3:0c:5b:19:53:85:26:09:a6:6e:62:5c:8c:13:d1:b5:
        7a:51:13:e1:65:84:6d:95:2d:b8:10:ea:3e:5a:5e:88:23:99:
        30:9e:bc:ec:01:cd:48:47:9d:43:3f:37:46:32:2f:fa:45:cf:
        6d:ac:42:05
-----BEGIN CERTIFICATE-----
MIIDkzCCAnugAwIBAgIUbCmxjXR8/OeEG5TpkiLU7AP+HBYwDQYJKoZIhvcNAQEL
BQAwXzELMAkGA1UEBhMCREUxDzANBgNVBAgMBkJlcmxpbjEPMA0GA1UEBwwGQmVy
bGluMQ4wDAYDVQQKDAVFeGFQRzELMAkGA1UECwwCQ0ExETAPBgNVBAMMCGV4YXBn
LWNhMB4XDTI1MDUyNDExMDM1N1oXDTI2MDUyNDExMDM1N1owZDELMAkGA1UEBhMC
REUxDzANBgNVBAgMBkJlcmxpbjEPMA0GA1UEBwwGQmVybGluMQ4wDAYDVQQKDAVF
eGFQRzENMAsGA1UECwwETm9kZTEUMBIGA1UEAwwLY29vcmRpbmF0b3IwggEiMA0G
CSqGSIb3DQEBAQUAA4IBDwAwggEKAoIBAQCYKZ+HLTfSh3Zlk+kqqn1Fp0CVrHWQ
hVZK7ifewGQYclMfApZ4GmdTxIc+eeiJaAmjDxe/jTFtxRTuAVF+uTr72ghGnukw
LxYz7JVLH2GxWDcoOdHDgAAndJdROMsvJGuEpZccN84mG3Kbi2xP5rmVaSMYGt5E
4+xl9oXEFMhGfDlE5Gqk8LRQYoZi9CWzCA5VSfO026EZaeEMUk3UiFZWqQwoAomv
cAOVbVJTPD0iR0vj/XJ1p3pNUHIbdwLgoZn0WvRazTwcByYyXbqiZkSPe8qBZkay
DOdjrFrlEwt2vp0mTlY6dVS2IvhQ861eqhJPyab77JMi8w5JEw+DLkShAgMBAAGj
QjBAMB0GA1UdDgQWBBSzpAHSHANOqh8ixwjG7451ECyoYzAfBgNVHSMEGDAWgBRs
FG4svSbgqHQTyWpKaIq3L/jCDDANBgkqhkiG9w0BAQsFAAOCAQEAboDXPbmlVqcl
cMLYzqtPVd+J8Aji+NtuoPDB+pS18o3lALoYpS+/ZXF0iJ6tLZOIx+t71xMUcZyo
IusJvKwR9nnlYp0t7kCg0v8JcFf/PlTOl3e5Jf2ZFMckD3rUEdIZKFEBnNRUxasN
PNJnmA7LB4NHQBKWeAYIpFEo3aW0DmQp3iE1bTIkQMXyZPf5R/xFcwIsTX0OTH51
Yy2IgemIiP/fLCixrYFPZYNt031OKhDzRC9lpnv6p6S0rHMxm+bnvNrraQzt9QfT
DFsZU4UmCaZuYlyME9G1elET4WWEbZUtuBDqPlpeiCOZMJ687AHNSEedQz83RjIv
+kXPbaxCBQ==
-----END CERTIFICATE-----
