Certificate:
    Data:
        Version: 3 (0x2)
        Serial Number:
            6a:44:92:04:44:e1:fb:2f:e5:3c:3d:26:c6:bf:13:cb:e6:5a:c1:b5
        Signature Algorithm: sha256WithRSAEncryption
        Issuer: C=DE, ST=Berlin, L=Berlin, O=ExaPG, OU=Database, CN=exapg-coordinator
        Validity
            Not Before: May 24 11:03:41 2025 GMT
            Not After : May 24 11:03:41 2026 GMT
        Subject: C=DE, ST=Berlin, L=Berlin, O=ExaPG, OU=Database, CN=exapg-coordinator
        Subject Public Key Info:
            Public Key Algorithm: rsaEncryption
                Public-Key: (2048 bit)
                Modulus:
                    00:a9:2b:62:4e:e4:d6:66:b6:e9:35:a1:33:1a:fa:
                    b0:8d:1d:9b:20:f3:9c:5e:07:54:e1:35:65:85:61:
                    5d:b2:fb:12:16:11:82:81:93:7d:97:a0:2f:fc:20:
                    21:40:e8:ca:44:79:a0:57:b4:85:bc:0a:b7:8a:f0:
                    a4:9f:26:97:82:ed:77:b7:03:e8:5e:1e:63:57:70:
                    a1:89:37:e4:db:13:56:56:69:1c:70:42:34:e6:db:
                    8c:ff:95:14:68:93:d8:75:70:1d:6f:f1:52:78:38:
                    9c:3b:6c:2d:5c:9e:7f:13:48:6c:40:f8:52:19:74:
                    ac:86:0e:85:88:aa:ec:aa:46:fc:3e:8d:59:3e:44:
                    62:1e:d3:64:b6:02:74:a2:9c:d3:35:68:3d:2f:b1:
                    a9:53:e9:14:c6:09:f3:da:8e:de:67:5a:f0:fa:a4:
                    56:5f:74:4a:49:4a:47:74:99:2f:2c:a3:22:fb:0f:
                    96:82:5e:bb:a8:d3:bd:95:96:38:fa:aa:b8:1a:bb:
                    6b:ad:ff:5a:a0:98:43:ce:2e:3d:58:b5:e2:ec:07:
                    50:2b:38:1e:30:e2:6d:27:17:12:9c:a9:5f:0e:74:
                    a4:38:f8:16:29:72:cb:59:94:46:8d:04:62:08:01:
                    18:32:88:4d:50:01:b9:51:d9:88:75:2e:e8:54:a0:
                    da:3b
                Exponent: 65537 (0x10001)
        X509v3 extensions:
            X509v3 Subject Key Identifier: 
                10:90:54:47:65:70:B7:47:39:A6:02:8D:15:76:55:AF:FF:A1:F5:13
            X509v3 Authority Key Identifier: 
                10:90:54:47:65:70:B7:47:39:A6:02:8D:15:76:55:AF:FF:A1:F5:13
            X509v3 Basic Constraints: critical
                CA:TRUE
    Signature Algorithm: sha256WithRSAEncryption
    Signature Value:
        04:df:40:cc:30:a3:f2:0f:21:cd:b2:5a:44:0a:f6:fc:cd:aa:
        b6:86:b4:85:91:2e:be:81:94:a8:36:d4:23:ac:48:bc:29:8a:
        af:0a:02:27:aa:f3:32:a3:31:9b:27:4a:c0:bd:19:f0:24:45:
        de:d1:76:d0:c9:98:22:62:6e:d3:7d:f4:95:d4:07:f7:ab:87:
        1e:19:cd:55:83:e3:d4:b0:79:b5:3a:8d:18:89:e8:c2:96:c6:
        c2:1d:9f:a8:dc:a5:02:04:ae:09:58:d7:da:8c:b8:83:d6:9b:
        d1:28:91:97:58:fb:eb:4c:0e:c5:02:99:79:df:76:98:ad:f5:
        25:5e:82:2f:ff:fd:fc:37:aa:5d:89:8f:20:06:87:4c:5b:74:
        a8:b3:cf:0f:68:2e:1b:4c:5c:75:d9:2f:1f:55:b4:04:6b:97:
        6b:fe:d2:22:c1:f5:ba:ef:34:27:1e:a2:d0:bf:8d:ad:f1:0f:
        4b:81:96:23:33:73:ee:0b:70:9f:dc:9a:0a:09:d4:9e:01:f5:
        58:6b:bc:69:91:5f:b7:8f:0b:b9:88:5e:98:b0:e3:b1:10:2f:
        ee:07:59:1f:32:94:4d:b4:80:e2:20:55:76:94:8e:af:15:af:
        da:d5:bc:2a:59:45:f6:08:c0:db:d0:ac:ec:a2:39:a6:e4:47:
        b3:c0:98:28
-----BEGIN CERTIFICATE-----
MIIDvTCCAqWgAwIBAgIUakSSBETh+y/lPD0mxr8Ty+ZawbUwDQYJKoZIhvcNAQEL
BQAwbjELMAkGA1UEBhMCREUxDzANBgNVBAgMBkJlcmxpbjEPMA0GA1UEBwwGQmVy
bGluMQ4wDAYDVQQKDAVFeGFQRzERMA8GA1UECwwIRGF0YWJhc2UxGjAYBgNVBAMM
EWV4YXBnLWNvb3JkaW5hdG9yMB4XDTI1MDUyNDExMDM0MVoXDTI2MDUyNDExMDM0
MVowbjELMAkGA1UEBhMCREUxDzANBgNVBAgMBkJlcmxpbjEPMA0GA1UEBwwGQmVy
bGluMQ4wDAYDVQQKDAVFeGFQRzERMA8GA1UECwwIRGF0YWJhc2UxGjAYBgNVBAMM
EWV4YXBnLWNvb3JkaW5hdG9yMIIBIjANBgkqhkiG9w0BAQEFAAOCAQ8AMIIBCgKC
AQEAqStiTuTWZrbpNaEzGvqwjR2bIPOcXgdU4TVlhWFdsvsSFhGCgZN9l6Av/CAh
QOjKRHmgV7SFvAq3ivCknyaXgu13twPoXh5jV3ChiTfk2xNWVmkccEI05tuM/5UU
aJPYdXAdb/FSeDicO2wtXJ5/E0hsQPhSGXSshg6FiKrsqkb8Po1ZPkRiHtNktgJ0
opzTNWg9L7GpU+kUxgnz2o7eZ1rw+qRWX3RKSUpHdJkvLKMi+w+Wgl67qNO9lZY4
+qq4Grtrrf9aoJhDzi49WLXi7AdQKzgeMOJtJxcSnKlfDnSkOPgWKXLLWZRGjQRi
CAEYMohNUAG5UdmIdS7oVKDaOwIDAQABo1MwUTAdBgNVHQ4EFgQUEJBUR2Vwt0c5
pgKNFXZVr/+h9RMwHwYDVR0jBBgwFoAUEJBUR2Vwt0c5pgKNFXZVr/+h9RMwDwYD
VR0TAQH/BAUwAwEB/zANBgkqhkiG9w0BAQsFAAOCAQEABN9AzDCj8g8hzbJaRAr2
/M2qtoa0hZEuvoGUqDbUI6xIvCmKrwoCJ6rzMqMxmydKwL0Z8CRF3tF20MmYImJu
0330ldQH96uHHhnNVYPj1LB5tTqNGInowpbGwh2fqNylAgSuCVjX2oy4g9ab0SiR
l1j760wOxQKZed92mK31JV6CL//9/DeqXYmPIAaHTFt0qLPPD2guG0xcddkvH1W0
BGuXa/7SIsH1uu80Jx6i0L+NrfEPS4GWIzNz7gtwn9yaCgnUngH1WGu8aZFft48L
uYhemLDjsRAv7gdZHzKUTbSA4iBVdpSOrxWv2tW8KllF9gjA29Cs7KI5puRHs8CY
KA==
-----END CERTIFICATE-----
