Certificate Request:
    Data:
        Version: 1 (0x0)
        Subject: C=DE, ST=Berlin, L=Berlin, O=ExaPG, OU=Node, CN=worker2
        Subject Public Key Info:
            Public Key Algorithm: rsaEncryption
                Public-Key: (2048 bit)
                Modulus:
                    00:d3:f8:4c:14:9f:6f:d4:20:9d:e8:18:44:d3:12:
                    3e:92:f5:d2:42:8a:01:23:19:c3:b7:9b:0f:f4:2b:
                    39:e8:05:67:8b:91:b8:2a:2c:b2:9f:71:04:d3:23:
                    b4:6f:0e:17:13:76:96:89:f1:6e:ed:98:78:44:44:
                    72:ec:98:cc:39:a0:a3:80:01:15:1c:86:d9:2a:78:
                    a9:6d:dd:27:11:9a:b9:73:b3:d9:3a:37:c2:8a:82:
                    03:0a:a1:9d:ce:ce:66:af:41:02:14:d8:16:01:92:
                    b3:6c:a2:31:3c:55:19:f0:94:46:a4:76:0e:4a:6c:
                    2b:33:6d:10:8f:47:fc:c9:e0:5b:63:5c:4e:6b:43:
                    a1:f9:92:ae:3c:f8:18:37:13:b1:fb:fe:d0:03:51:
                    94:54:6a:40:63:ea:90:96:90:30:4e:64:b8:2c:22:
                    15:06:b5:b8:65:aa:a4:8a:f2:7b:85:eb:5b:bf:4d:
                    df:a4:6b:af:cc:5a:2c:31:5c:a4:e1:2a:92:01:83:
                    54:c6:f0:8e:24:2a:60:d9:48:15:74:4e:47:4b:98:
                    80:a2:71:60:42:0e:00:de:94:91:cc:8b:05:f1:a1:
                    16:9c:ac:69:86:e7:06:0d:20:c8:4c:5b:50:b9:37:
                    3a:71:b4:89:a0:e4:5d:fc:ea:de:98:ec:89:1b:6b:
                    94:8b
                Exponent: 65537 (0x10001)
        Attributes:
            (none)
            Requested Extensions:
    Signature Algorithm: sha256WithRSAEncryption
    Signature Value:
        1e:d2:00:04:19:6d:51:e9:80:17:0a:f2:f5:d4:d7:cd:bc:16:
        5f:03:20:ed:26:5e:2a:5c:e0:78:69:cb:b3:99:7d:78:0a:2a:
        93:b8:d5:e0:1a:40:8b:c1:25:74:04:9b:70:f9:c2:c2:fa:9a:
        cc:16:44:94:cf:f6:48:82:9a:82:09:da:a2:e9:8b:83:76:c3:
        f5:93:88:02:6d:34:11:0b:93:87:0f:da:fe:a9:25:df:d5:c9:
        c2:7c:53:6a:68:15:ce:36:92:f3:9a:ff:a1:de:49:d0:bb:2f:
        92:31:32:90:ee:5b:41:cd:95:a2:99:e8:4b:d2:be:59:c7:fb:
        ad:4f:9d:ae:a3:8b:ee:65:d5:39:92:8a:1b:7b:97:05:0f:ff:
        d9:2d:90:a9:0e:e7:d7:e0:74:1a:9e:56:7f:12:94:95:f2:72:
        95:83:97:49:4d:89:d4:6b:55:48:54:1a:73:fd:fd:84:ad:93:
        5a:67:fe:52:59:5d:c2:f1:3f:ce:13:fb:32:fe:fb:d9:4d:bb:
        1c:b4:95:04:dd:b5:e9:19:a3:b8:07:19:28:d9:cb:34:f8:ae:
        30:8a:80:5f:b8:7d:59:7a:86:96:5e:82:46:55:fb:8b:52:24:
        a4:45:74:d5:2b:fa:a5:82:97:37:d6:d9:49:b8:b9:82:de:fd:
        4a:19:7c:80
-----BEGIN CERTIFICATE REQUEST-----
MIICpTCCAY0CAQAwYDELMAkGA1UEBhMCREUxDzANBgNVBAgMBkJlcmxpbjEPMA0G
A1UEBwwGQmVybGluMQ4wDAYDVQQKDAVFeGFQRzENMAsGA1UECwwETm9kZTEQMA4G
A1UEAwwHd29ya2VyMjCCASIwDQYJKoZIhvcNAQEBBQADggEPADCCAQoCggEBANP4
TBSfb9QgnegYRNMSPpL10kKKASMZw7ebD/QrOegFZ4uRuCossp9xBNMjtG8OFxN2
lonxbu2YeEREcuyYzDmgo4ABFRyG2Sp4qW3dJxGauXOz2To3woqCAwqhnc7OZq9B
AhTYFgGSs2yiMTxVGfCURqR2DkpsKzNtEI9H/MngW2NcTmtDofmSrjz4GDcTsfv+
0ANRlFRqQGPqkJaQME5kuCwiFQa1uGWqpIrye4XrW79N36Rrr8xaLDFcpOEqkgGD
VMbwjiQqYNlIFXROR0uYgKJxYEIOAN6UkcyLBfGhFpysaYbnBg0gyExbULk3OnG0
iaDkXfzq3pjsiRtrlIsCAwEAAaAAMA0GCSqGSIb3DQEBCwUAA4IBAQAe0gAEGW1R
6YAXCvL11NfNvBZfAyDtJl4qXOB4acuzmX14CiqTuNXgGkCLwSV0BJtw+cLC+prM
FkSUz/ZIgpqCCdqi6YuDdsP1k4gCbTQRC5OHD9r+qSXf1cnCfFNqaBXONpLzmv+h
3knQuy+SMTKQ7ltBzZWimehL0r5Zx/utT52uo4vuZdU5koobe5cFD//ZLZCpDufX
4HQanlZ/EpSV8nKVg5dJTYnUa1VIVBpz/f2ErZNaZ/5SWV3C8T/OE/sy/vvZTbsc
tJUE3bXpGaO4Bxko2cs0+K4wioBfuH1ZeoaWXoJGVfuLUiSkRXTVK/qlgpc31tlJ
uLmC3v1KGXyA
-----END CERTIFICATE REQUEST-----
