Certificate Request:
    Data:
        Version: 1 (0x0)
        Subject: C=DE, ST=Berlin, L=Berlin, O=ExaPG, OU=Node, CN=worker1
        Subject Public Key Info:
            Public Key Algorithm: rsaEncryption
                Public-Key: (2048 bit)
                Modulus:
                    00:a7:19:bd:0b:47:2c:e8:a5:74:d0:82:81:ee:90:
                    91:c7:13:74:0a:62:e9:75:4a:80:ea:d7:9c:93:7c:
                    53:f4:7b:ab:94:7b:02:d6:bf:2a:f9:4d:a0:1b:1b:
                    30:aa:ac:16:b9:3a:5c:62:8e:df:fb:fd:1c:0f:88:
                    dc:74:07:70:4d:92:72:aa:50:d6:67:6a:96:31:19:
                    85:01:bf:dc:91:71:74:b7:c9:f8:74:1d:85:e1:55:
                    fc:80:4d:3c:ec:03:95:44:eb:f2:5d:ed:9f:c7:9e:
                    ee:15:bd:d1:0d:f5:73:42:00:fc:18:72:30:da:93:
                    7d:54:26:90:90:72:ea:93:c5:26:53:75:2c:ce:43:
                    d6:64:12:63:e9:68:88:0d:51:15:70:a7:a9:79:ed:
                    88:e5:c1:d2:5e:0d:44:7b:48:13:c3:06:0a:e2:aa:
                    92:84:87:58:30:c3:75:22:fa:9c:8f:85:95:fc:f1:
                    87:b9:ae:26:5f:17:54:f4:60:cd:cd:09:ef:39:41:
                    53:88:fa:f5:f2:da:60:12:0e:27:71:a7:86:bd:01:
                    4a:8d:f8:4a:53:64:8b:d7:af:7b:2f:0b:49:61:50:
                    cc:fe:14:f0:fe:1a:95:54:c4:c7:43:68:a0:ba:ec:
                    29:94:36:a9:47:a4:43:8a:1c:ae:6e:41:8e:67:44:
                    3d:93
                Exponent: 65537 (0x10001)
        Attributes:
            (none)
            Requested Extensions:
    Signature Algorithm: sha256WithRSAEncryption
    Signature Value:
        17:74:59:bf:b5:d0:2a:1e:89:d8:e8:dd:44:af:ad:25:3b:6c:
        5d:c2:10:0d:c7:0d:59:81:6c:48:f4:64:7f:c2:4a:2a:08:9a:
        a9:14:f6:16:de:4a:b8:e5:cc:86:18:be:6d:67:14:4f:2f:01:
        6c:5d:ae:50:a9:57:f8:bd:f9:05:5f:80:cf:05:89:de:0a:c7:
        18:d9:47:dc:4d:bd:81:4c:ed:66:09:b8:22:69:7f:dd:29:a1:
        0c:04:cb:b7:d8:ee:78:bc:c4:36:d5:00:35:4a:64:4e:00:f7:
        3d:4c:0b:b9:03:a5:25:6b:fc:6a:44:cf:55:f5:4b:db:4b:41:
        9b:7d:a8:6a:1a:59:f1:13:86:40:ab:2b:f5:c2:e7:b8:a6:02:
        81:43:c5:11:33:18:66:15:55:ce:e4:1f:fd:eb:0c:db:8d:56:
        39:f6:ea:db:69:d6:3d:31:dd:59:19:90:b0:db:63:87:ba:e3:
        44:95:c5:ae:a4:d3:8a:74:8f:20:2b:87:92:b5:80:32:68:75:
        23:1b:35:18:e3:10:64:af:7a:b0:5b:c1:2b:d2:66:54:14:85:
        97:88:1f:87:38:ab:26:92:56:f7:7b:d6:12:d6:9f:ab:84:44:
        6f:f9:c1:02:4b:37:cc:f0:fe:2f:a2:87:fe:f3:4e:af:16:9e:
        fc:e7:09:b7
-----BEGIN CERTIFICATE REQUEST-----
MIICpTCCAY0CAQAwYDELMAkGA1UEBhMCREUxDzANBgNVBAgMBkJlcmxpbjEPMA0G
A1UEBwwGQmVybGluMQ4wDAYDVQQKDAVFeGFQRzENMAsGA1UECwwETm9kZTEQMA4G
A1UEAwwHd29ya2VyMTCCASIwDQYJKoZIhvcNAQEBBQADggEPADCCAQoCggEBAKcZ
vQtHLOildNCCge6QkccTdApi6XVKgOrXnJN8U/R7q5R7Ata/KvlNoBsbMKqsFrk6
XGKO3/v9HA+I3HQHcE2ScqpQ1mdqljEZhQG/3JFxdLfJ+HQdheFV/IBNPOwDlUTr
8l3tn8ee7hW90Q31c0IA/BhyMNqTfVQmkJBy6pPFJlN1LM5D1mQSY+loiA1RFXCn
qXntiOXB0l4NRHtIE8MGCuKqkoSHWDDDdSL6nI+Flfzxh7muJl8XVPRgzc0J7zlB
U4j69fLaYBIOJ3Gnhr0BSo34SlNki9evey8LSWFQzP4U8P4alVTEx0NooLrsKZQ2
qUekQ4ocrm5BjmdEPZMCAwEAAaAAMA0GCSqGSIb3DQEBCwUAA4IBAQAXdFm/tdAq
HonY6N1Er60lO2xdwhANxw1ZgWxI9GR/wkoqCJqpFPYW3kq45cyGGL5tZxRPLwFs
Xa5QqVf4vfkFX4DPBYneCscY2UfcTb2BTO1mCbgiaX/dKaEMBMu32O54vMQ21QA1
SmROAPc9TAu5A6Ula/xqRM9V9UvbS0GbfahqGlnxE4ZAqyv1wue4pgKBQ8URMxhm
FVXO5B/96wzbjVY59urbadY9Md1ZGZCw22OHuuNElcWupNOKdI8gK4eStYAyaHUj
GzUY4xBkr3qwW8Er0mZUFIWXiB+HOKsmklb3e9YS1p+rhERv+cECSzfM8P4voof+
806vFp785wm3
-----END CERTIFICATE REQUEST-----
